; Function Attrs: mustprogress uwtable
define hidden void @_ZN6google8protobuf8compiler4java17ClassNameResolver26GetDowngradedFileClassNameB5cxx11EPKNS0_14FileDescriptorE(ptr noalias sret(%"class.std::__cxx11::basic_string") align 8 %agg.result, ptr noundef nonnull align 8 dereferenceable(112) %this, ptr noundef %file) local_unnamed_addr #3 align 2 personality ptr @__gxx_personality_v0 {
entry:
  %ref.tmp10.i = alloca %"class.absl::lts_20230802::AlphaNum", align 8
  %ref.tmp11.i = alloca %"class.absl::lts_20230802::AlphaNum", align 8
  %ref.tmp12.i = alloca %"class.std::__cxx11::basic_string", align 8
  %ref.tmp = alloca %"class.absl::lts_20230802::AlphaNum", align 8
  %ref.tmp2 = alloca %"class.absl::lts_20230802::AlphaNum", align 8
  %ref.tmp3 = alloca %"class.std::__cxx11::basic_string", align 8
  store i64 10, ptr %ref.tmp, align 8
  %0 = getelementptr inbounds nuw i8, ptr %ref.tmp, i64 8
  store ptr @.str.7, ptr %0, align 8
  call void @llvm.lifetime.start.p0(i64 48, ptr nonnull %ref.tmp10.i)
  call void @llvm.lifetime.start.p0(i64 48, ptr nonnull %ref.tmp11.i)
  call void @llvm.lifetime.start.p0(i64 32, ptr nonnull %ref.tmp12.i)
  store i64 7, ptr %ref.tmp10.i, align 8, !noalias !23
  %1 = getelementptr inbounds nuw i8, ptr %ref.tmp10.i, i64 8
  store ptr @.str.1, ptr %1, align 8, !noalias !23
  call void @_ZN6google8protobuf8compiler4java17ClassNameResolver25GetFileImmutableClassNameB5cxx11EPKNS0_14FileDescriptorE(ptr nonnull sret(%"class.std::__cxx11::basic_string") align 8 %ref.tmp12.i, ptr noundef nonnull align 8 dereferenceable(112) %this, ptr noundef %file), !noalias !23
  %call.i5.i = call { i64, ptr } @_ZNKSt7__cxx1112basic_stringIcSt11char_traitsIcESaIcEEcvSt17basic_string_viewIcS2_EEv(ptr noundef nonnull align 8 dereferenceable(32) %ref.tmp12.i) #18, !noalias !23
  %2 = extractvalue { i64, ptr } %call.i5.i, 0
  store i64 %2, ptr %ref.tmp11.i, align 8, !noalias !23
  %3 = getelementptr inbounds nuw i8, ptr %ref.tmp11.i, i64 8
  %4 = extractvalue { i64, ptr } %call.i5.i, 1
  store ptr %4, ptr %3, align 8, !noalias !23
  invoke void @_ZN4absl12lts_202308026StrCatB5cxx11ERKNS0_8AlphaNumES3_(ptr nonnull sret(%"class.std::__cxx11::basic_string") align 8 %ref.tmp3, ptr noundef nonnull align 8 dereferenceable(48) %ref.tmp10.i, ptr noundef nonnull align 8 dereferenceable(48) %ref.tmp11.i)
          to label %_ZN6google8protobuf8compiler4java17ClassNameResolver16GetFileClassNameB5cxx11EPKNS0_14FileDescriptorEbb.exit unwind label %lpad13.i

common.resume:                                    ; preds = %lpad, %lpad13.i
  %ref.tmp3.sink = phi ptr [ %ref.tmp3, %lpad ], [ %ref.tmp12.i, %lpad13.i ]
  %common.resume.op = phi { ptr, i32 } [ %9, %lpad ], [ %5, %lpad13.i ]
  call void @_ZNSt7__cxx1112basic_stringIcSt11char_traitsIcESaIcEED1Ev(ptr noundef nonnull align 8 dereferenceable(32) %ref.tmp3.sink) #18
  resume { ptr, i32 } %common.resume.op

lpad13.i:                                         ; preds = %entry
  %5 = landingpad { ptr, i32 }
          cleanup
  br label %common.resume

_ZN6google8protobuf8compiler4java17ClassNameResolver16GetFileClassNameB5cxx11EPKNS0_14FileDescriptorEbb.exit: ; preds = %entry
  call void @_ZNSt7__cxx1112basic_stringIcSt11char_traitsIcESaIcEED1Ev(ptr noundef nonnull align 8 dereferenceable(32) %ref.tmp12.i) #18
  call void @llvm.lifetime.end.p0(i64 48, ptr nonnull %ref.tmp10.i)
  call void @llvm.lifetime.end.p0(i64 48, ptr nonnull %ref.tmp11.i)
  call void @llvm.lifetime.end.p0(i64 32, ptr nonnull %ref.tmp12.i)
  %call.i = call { i64, ptr } @_ZNKSt7__cxx1112basic_stringIcSt11char_traitsIcESaIcEEcvSt17basic_string_viewIcS2_EEv(ptr noundef nonnull align 8 dereferenceable(32) %ref.tmp3) #18
  %6 = extractvalue { i64, ptr } %call.i, 0
  store i64 %6, ptr %ref.tmp2, align 8
  %7 = getelementptr inbounds nuw i8, ptr %ref.tmp2, i64 8
  %8 = extractvalue { i64, ptr } %call.i, 1
  store ptr %8, ptr %7, align 8
  invoke void @_ZN4absl12lts_202308026StrCatB5cxx11ERKNS0_8AlphaNumES3_(ptr sret(%"class.std::__cxx11::basic_string") align 8 %agg.result, ptr noundef nonnull align 8 dereferenceable(48) %ref.tmp, ptr noundef nonnull align 8 dereferenceable(48) %ref.tmp2)
          to label %invoke.cont4 unwind label %lpad

invoke.cont4:                                     ; preds = %_ZN6google8protobuf8compiler4java17ClassNameResolver16GetFileClassNameB5cxx11EPKNS0_14FileDescriptorEbb.exit
  call void @_ZNSt7__cxx1112basic_stringIcSt11char_traitsIcESaIcEED1Ev(ptr noundef nonnull align 8 dereferenceable(32) %ref.tmp3) #18
  ret void

lpad:                                             ; preds = %_ZN6google8protobuf8compiler4java17ClassNameResolver16GetFileClassNameB5cxx11EPKNS0_14FileDescriptorEbb.exit
  %9 = landingpad { ptr, i32 }
          cleanup
  br label %common.resume
}